target datalayout = "e-m:e-p270:32:32-p271:32:32-p272:64:64-i64:64-i128:128-f80:128-n8:16:32:64-S128"
target triple = "x86_64-pc-linux-gnu"

%struct.rb_data_type_struct = type { ptr, %struct.anon.16, ptr, ptr, i64 }
%struct.anon.16 = type { ptr, ptr, ptr, ptr, [1 x ptr] }
%struct.RBasic = type { i64, i64 }
%struct.load_arg = type { i64, ptr, i64, i64, i64, ptr, ptr, ptr, i64, ptr, i8 }
%struct.RTypedData = type { %struct.RBasic, ptr, i64, ptr }

@rb_eTypeError = external global i64, align 8
@s_getbyte = internal global i64 0, align 8
@s_read = internal global i64 0, align 8
@s_binmode = internal global i64 0, align 8
@load_arg_data = internal constant %struct.rb_data_type_struct { ptr @.str.61, %struct.anon.16 { ptr @mark_load_arg, ptr @free_load_arg, ptr @memsize_load_arg, ptr null, [1 x ptr] zeroinitializer }, ptr null, ptr null, i64 3 }, align 8
@.str.59 = private unnamed_addr constant [93 x i8] c"incompatible marshal file format (can't be read)\0A\09format version %d.%d required; %d.%d given\00", align 1
@.str.60 = private unnamed_addr constant [91 x i8] c"incompatible marshal file format (can be read)\0A\09format version %d.%d required; %d.%d given\00", align 1

; Function Attrs: nounwind sspstrong uwtable
define internal i64 @r_object0(ptr noundef %0, i1 noundef zeroext %1, ptr noundef %2, i64 noundef %3) #0 {
  %5 = alloca ptr, align 8
  %6 = alloca i8, align 1
  %7 = alloca ptr, align 8
  %8 = alloca i64, align 8
  %9 = alloca i32, align 4
  store ptr %0, ptr %5, align 8, !tbaa !33
  %10 = zext i1 %1 to i8
  store i8 %10, ptr %6, align 1, !tbaa !50
  store ptr %2, ptr %7, align 8, !tbaa !85
  store i64 %3, ptr %8, align 8, !tbaa !7
  call void @llvm.lifetime.start.p0(i64 4, ptr %9) #23
  %11 = load ptr, ptr %5, align 8, !tbaa !33
  %12 = call i32 @r_byte(ptr noundef %11)
  store i32 %12, ptr %9, align 4, !tbaa !22
  %13 = load ptr, ptr %5, align 8, !tbaa !33
  %14 = load i8, ptr %6, align 1, !tbaa !50, !range !57, !noundef !58
  %15 = trunc i8 %14 to i1
  %16 = load ptr, ptr %7, align 8, !tbaa !85
  %17 = load i64, ptr %8, align 8, !tbaa !7
  %18 = load i32, ptr %9, align 4, !tbaa !22
  %19 = call i64 @r_object_for(ptr noundef %13, i1 noundef zeroext %15, ptr noundef %16, i64 noundef %17, i32 noundef %18)
  call void @llvm.lifetime.end.p0(i64 4, ptr %9) #23
  ret i64 %19
}

; Function Attrs: inlinehint nounwind sspstrong uwtable
define internal zeroext i1 @RTYPEDDATA_EMBEDDED_P(i64 noundef %0) #5 {
  %2 = alloca i64, align 8
  store i64 %0, ptr %2, align 8, !tbaa !7
  %3 = load i64, ptr %2, align 8, !tbaa !7
  %4 = inttoptr i64 %3 to ptr
  %5 = getelementptr inbounds nuw %struct.RTypedData, ptr %4, i32 0, i32 2
  %6 = load i64, ptr %5, align 8, !tbaa !92
  %7 = and i64 %6, 2
  %8 = icmp ne i64 %7, 0
  ret i1 %8
}

; Function Attrs: nounwind sspstrong uwtable
define internal i64 @r_object(ptr noundef %0) #0 {
  %2 = alloca ptr, align 8
  store ptr %0, ptr %2, align 8, !tbaa !33
  %3 = load ptr, ptr %2, align 8, !tbaa !33
  %4 = call i64 @r_object0(ptr noundef %3, i1 noundef zeroext false, ptr noundef null, i64 noundef 4)
  ret i64 %4
}

; Function Attrs: inlinehint nounwind sspstrong willreturn memory(none) uwtable
define internal zeroext i1 @RB_TEST(i64 noundef %0) #8 {
  %2 = alloca i64, align 8
  store i64 %0, ptr %2, align 8, !tbaa !7
  %3 = load i64, ptr %2, align 8, !tbaa !7
  %4 = and i64 %3, -5
  %5 = icmp ne i64 %4, 0
  ret i1 %5
}

; Function Attrs: inlinehint nounwind sspstrong uwtable
define internal ptr @RTYPEDDATA_GET_DATA(i64 noundef %0) #5 {
  %2 = alloca i64, align 8
  %3 = alloca i64, align 8
  store i64 %0, ptr %2, align 8, !tbaa !7
  call void @llvm.lifetime.start.p0(i64 8, ptr %3) #23
  store i64 32, ptr %3, align 8, !tbaa !7
  %4 = load i64, ptr %2, align 8, !tbaa !7
  %5 = call zeroext i1 @RTYPEDDATA_EMBEDDED_P(i64 noundef %4)
  br i1 %5, label %6, label %10

6:                                                ; preds = %1
  %7 = load i64, ptr %2, align 8, !tbaa !7
  %8 = inttoptr i64 %7 to ptr
  %9 = getelementptr i8, ptr %8, i64 32
  br label %15

10:                                               ; preds = %1
  %11 = load i64, ptr %2, align 8, !tbaa !7
  %12 = inttoptr i64 %11 to ptr
  %13 = getelementptr inbounds nuw %struct.RTypedData, ptr %12, i32 0, i32 3
  %14 = load ptr, ptr %13, align 8, !tbaa !75
  br label %15

15:                                               ; preds = %10, %6
  %16 = phi ptr [ %9, %6 ], [ %14, %10 ]
  call void @llvm.lifetime.end.p0(i64 8, ptr %3) #23
  ret ptr %16
}

; Function Attrs: inlinehint nounwind sspstrong willreturn memory(none) uwtable
define internal zeroext i1 @RB_NIL_P(i64 noundef %0) #8 {
  %2 = alloca i64, align 8
  store i64 %0, ptr %2, align 8, !tbaa !7
  %3 = load i64, ptr %2, align 8, !tbaa !7
  %4 = icmp eq i64 %3, 4
  ret i1 %4
}

; Function Attrs: nounwind sspstrong uwtable
define internal i64 @rb_marshal_load_with_proc(i64 noundef %0, i64 noundef %1, i1 noundef zeroext %2) #0 {
  %4 = alloca i64, align 8
  %5 = alloca i64, align 8
  %6 = alloca i8, align 1
  %7 = alloca i32, align 4
  %8 = alloca i32, align 4
  %9 = alloca i64, align 8
  %10 = alloca i64, align 8
  %11 = alloca ptr, align 8
  %12 = alloca i64, align 8
  %13 = alloca i64, align 8
  %14 = alloca ptr, align 8
  %15 = alloca ptr, align 8
  store i64 %0, ptr %4, align 8, !tbaa !7
  store i64 %1, ptr %5, align 8, !tbaa !7
  %16 = zext i1 %2 to i8
  store i8 %16, ptr %6, align 1, !tbaa !50
  call void @llvm.lifetime.start.p0(i64 4, ptr %7) #23
  call void @llvm.lifetime.start.p0(i64 4, ptr %8) #23
  call void @llvm.lifetime.start.p0(i64 8, ptr %9) #23
  call void @llvm.lifetime.start.p0(i64 8, ptr %10) #23
  call void @llvm.lifetime.start.p0(i64 8, ptr %11) #23
  %17 = load i64, ptr %4, align 8, !tbaa !7
  %18 = call i64 @rb_check_string_type(i64 noundef %17)
  store i64 %18, ptr %9, align 8, !tbaa !7
  %19 = load i64, ptr %9, align 8, !tbaa !7
  %20 = call zeroext i1 @RB_NIL_P(i64 noundef %19) #26
  br i1 %20, label %23, label %21

21:                                               ; preds = %3
  %22 = load i64, ptr %9, align 8, !tbaa !7
  store i64 %22, ptr %4, align 8, !tbaa !7
  br label %39

23:                                               ; preds = %3
  %24 = load i64, ptr %4, align 8, !tbaa !7
  %25 = load i64, ptr @s_getbyte, align 8, !tbaa !7
  %26 = call i32 @rb_respond_to(i64 noundef %24, i64 noundef %25)
  %27 = icmp ne i32 %26, 0
  br i1 %27, label %28, label %37

28:                                               ; preds = %23
  %29 = load i64, ptr %4, align 8, !tbaa !7
  %30 = load i64, ptr @s_read, align 8, !tbaa !7
  %31 = call i32 @rb_respond_to(i64 noundef %29, i64 noundef %30)
  %32 = icmp ne i32 %31, 0
  br i1 %32, label %33, label %37

33:                                               ; preds = %28
  %34 = load i64, ptr %4, align 8, !tbaa !7
  %35 = load i64, ptr @s_binmode, align 8, !tbaa !7
  %36 = call i64 @rb_check_funcall(i64 noundef %34, i64 noundef %35, i32 noundef 0, ptr noundef null)
  br label %38

37:                                               ; preds = %28, %23
  call void @io_needed() #24
  unreachable

38:                                               ; preds = %33
  br label %39

39:                                               ; preds = %38, %21
  call void @llvm.lifetime.start.p0(i64 8, ptr %12) #23
  %40 = call i64 @rb_data_typed_object_zalloc(i64 noundef 0, i64 noundef 88, ptr noundef @load_arg_data)
  store i64 %40, ptr %12, align 8, !tbaa !7
  %41 = load i64, ptr %12, align 8, !tbaa !7
  %42 = call ptr @RTYPEDDATA_GET_DATA(i64 noundef %41)
  store ptr %42, ptr %11, align 8, !tbaa !33
  %43 = load i64, ptr %12, align 8, !tbaa !7
  store i64 %43, ptr %13, align 8, !tbaa !7
  call void @llvm.lifetime.end.p0(i64 8, ptr %12) #23
  %44 = load i64, ptr %13, align 8, !tbaa !7
  store i64 %44, ptr %10, align 8, !tbaa !7
  %45 = load i64, ptr %4, align 8, !tbaa !7
  %46 = load ptr, ptr %11, align 8, !tbaa !33
  %47 = getelementptr inbounds nuw %struct.load_arg, ptr %46, i32 0, i32 0
  store i64 %45, ptr %47, align 8, !tbaa !29
  %48 = load ptr, ptr %11, align 8, !tbaa !33
  %49 = getelementptr inbounds nuw %struct.load_arg, ptr %48, i32 0, i32 4
  store i64 0, ptr %49, align 8, !tbaa !32
  %50 = call ptr @rb_st_init_numtable()
  %51 = load ptr, ptr %11, align 8, !tbaa !33
  %52 = getelementptr inbounds nuw %struct.load_arg, ptr %51, i32 0, i32 5
  store ptr %50, ptr %52, align 8, !tbaa !51
  %53 = call ptr @rb_init_identtable()
  %54 = load ptr, ptr %11, align 8, !tbaa !33
  %55 = getelementptr inbounds nuw %struct.load_arg, ptr %54, i32 0, i32 6
  store ptr %53, ptr %55, align 8, !tbaa !52
  %56 = call ptr @rb_init_identtable()
  %57 = load ptr, ptr %11, align 8, !tbaa !33
  %58 = getelementptr inbounds nuw %struct.load_arg, ptr %57, i32 0, i32 7
  store ptr %56, ptr %58, align 8, !tbaa !53
  %59 = load ptr, ptr %11, align 8, !tbaa !33
  %60 = getelementptr inbounds nuw %struct.load_arg, ptr %59, i32 0, i32 9
  store ptr null, ptr %60, align 8, !tbaa !54
  %61 = load ptr, ptr %11, align 8, !tbaa !33
  %62 = getelementptr inbounds nuw %struct.load_arg, ptr %61, i32 0, i32 8
  store i64 0, ptr %62, align 8, !tbaa !55
  %63 = load ptr, ptr %11, align 8, !tbaa !33
  %64 = getelementptr inbounds nuw %struct.load_arg, ptr %63, i32 0, i32 3
  store i64 0, ptr %64, align 8, !tbaa !56
  %65 = load i8, ptr %6, align 1, !tbaa !50, !range !57, !noundef !58
  %66 = trunc i8 %65 to i1
  %67 = load ptr, ptr %11, align 8, !tbaa !33
  %68 = getelementptr inbounds nuw %struct.load_arg, ptr %67, i32 0, i32 10
  %69 = zext i1 %66 to i8
  store i8 %69, ptr %68, align 8, !tbaa !59
  %70 = load i64, ptr %9, align 8, !tbaa !7
  %71 = call zeroext i1 @RB_NIL_P(i64 noundef %70) #26
  br i1 %71, label %72, label %76

72:                                               ; preds = %39
  %73 = call noalias nonnull ptr @ruby_xmalloc(i64 noundef 8192) #25
  %74 = load ptr, ptr %11, align 8, !tbaa !33
  %75 = getelementptr inbounds nuw %struct.load_arg, ptr %74, i32 0, i32 1
  store ptr %73, ptr %75, align 8, !tbaa !60
  br label %79

76:                                               ; preds = %39
  %77 = load ptr, ptr %11, align 8, !tbaa !33
  %78 = getelementptr inbounds nuw %struct.load_arg, ptr %77, i32 0, i32 1
  store ptr null, ptr %78, align 8, !tbaa !60
  br label %79

79:                                               ; preds = %76, %72
  %80 = load ptr, ptr %11, align 8, !tbaa !33
  %81 = call i32 @r_byte(ptr noundef %80)
  store i32 %81, ptr %7, align 4, !tbaa !22
  %82 = load ptr, ptr %11, align 8, !tbaa !33
  %83 = call i32 @r_byte(ptr noundef %82)
  store i32 %83, ptr %8, align 4, !tbaa !22
  %84 = load i32, ptr %7, align 4, !tbaa !22
  %85 = icmp ne i32 %84, 4
  br i1 %85, label %89, label %86

86:                                               ; preds = %79
  %87 = load i32, ptr %8, align 4, !tbaa !22
  %88 = icmp sgt i32 %87, 8
  br i1 %88, label %89, label %94

89:                                               ; preds = %86, %79
  %90 = load ptr, ptr %11, align 8, !tbaa !33
  call void @clear_load_arg(ptr noundef %90)
  %91 = load i64, ptr @rb_eTypeError, align 8, !tbaa !7
  %92 = load i32, ptr %7, align 4, !tbaa !22
  %93 = load i32, ptr %8, align 4, !tbaa !22
  call void (i64, ptr, ...) @rb_raise(i64 noundef %91, ptr noundef @.str.59, i32 noundef 4, i32 noundef 8, i32 noundef %92, i32 noundef %93) #24
  unreachable

94:                                               ; preds = %86
  %95 = call ptr @rb_ruby_verbose_ptr()
  %96 = load i64, ptr %95, align 8, !tbaa !7
  %97 = call zeroext i1 @RB_TEST(i64 noundef %96) #26
  br i1 %97, label %98, label %104

98:                                               ; preds = %94
  %99 = load i32, ptr %8, align 4, !tbaa !22
  %100 = icmp ne i32 %99, 8
  br i1 %100, label %101, label %104

101:                                              ; preds = %98
  %102 = load i32, ptr %7, align 4, !tbaa !22
  %103 = load i32, ptr %8, align 4, !tbaa !22
  call void (ptr, ...) @rb_warn(ptr noundef @.str.60, i32 noundef 4, i32 noundef 8, i32 noundef %102, i32 noundef %103) #28
  br label %104

104:                                              ; preds = %101, %98, %94
  %105 = load i64, ptr %5, align 8, !tbaa !7
  %106 = call zeroext i1 @RB_NIL_P(i64 noundef %105) #26
  br i1 %106, label %111, label %107

107:                                              ; preds = %104
  %108 = load i64, ptr %5, align 8, !tbaa !7
  %109 = load ptr, ptr %11, align 8, !tbaa !33
  %110 = getelementptr inbounds nuw %struct.load_arg, ptr %109, i32 0, i32 8
  store i64 %108, ptr %110, align 8, !tbaa !55
  br label %111

111:                                              ; preds = %107, %104
  %112 = load ptr, ptr %11, align 8, !tbaa !33
  %113 = call i64 @r_object(ptr noundef %112)
  store i64 %113, ptr %9, align 8, !tbaa !7
  %114 = load ptr, ptr %11, align 8, !tbaa !33
  call void @clear_load_arg(ptr noundef %114)
  call void @llvm.lifetime.start.p0(i64 8, ptr %14) #23
  store ptr %10, ptr %14, align 8, !tbaa !18
  call void asm sideeffect "", "*m,~{dirflag},~{fpsr},~{flags}"(ptr elementtype(ptr) %14) #23, !srcloc !61
  %115 = load ptr, ptr %14, align 8, !tbaa !18
  store ptr %115, ptr %15, align 8, !tbaa !18
  call void @llvm.lifetime.end.p0(i64 8, ptr %14) #23
  %116 = load ptr, ptr %15, align 8, !tbaa !18
  %117 = load volatile i64, ptr %116, align 8, !tbaa !7
  %118 = load i64, ptr %9, align 8, !tbaa !7
  call void @llvm.lifetime.end.p0(i64 8, ptr %11) #23
  call void @llvm.lifetime.end.p0(i64 8, ptr %10) #23
  call void @llvm.lifetime.end.p0(i64 8, ptr %9) #23
  call void @llvm.lifetime.end.p0(i64 4, ptr %8) #23
  call void @llvm.lifetime.end.p0(i64 4, ptr %7) #23
  ret i64 %118
}