; Function Attrs: nounwind sspstrong uwtable
define internal fastcc range(i64 37, 36) i64 @rb_marshal_load_with_proc(i64 noundef %0, i64 noundef %1, i1 noundef zeroext %2) unnamed_addr #0 {
  %4 = alloca i64, align 8
  %5 = alloca ptr, align 8
  %6 = zext i1 %2 to i8
  call void @llvm.lifetime.start.p0(i64 8, ptr nonnull %4) #22
  %7 = tail call i64 @rb_check_string_type(i64 noundef %0) #22
  %8 = icmp eq i64 %7, 4
  br i1 %8, label %9, label %19

9:                                                ; preds = %3
  %10 = load i64, ptr @s_getbyte, align 8, !tbaa !7
  %11 = tail call i32 @rb_respond_to(i64 noundef %0, i64 noundef %10) #22
  %.not = icmp eq i32 %11, 0
  br i1 %.not, label %18, label %12

12:                                               ; preds = %9
  %13 = load i64, ptr @s_read, align 8, !tbaa !7
  %14 = tail call i32 @rb_respond_to(i64 noundef %0, i64 noundef %13) #22
  %.not44 = icmp eq i32 %14, 0
  br i1 %.not44, label %18, label %15

15:                                               ; preds = %12
  %16 = load i64, ptr @s_binmode, align 8, !tbaa !7
  %17 = tail call i64 @rb_check_funcall(i64 noundef %0, i64 noundef %16, i32 noundef 0, ptr noundef null) #22
  br label %19

18:                                               ; preds = %12, %9
  tail call fastcc void @io_needed() #25
  unreachable

19:                                               ; preds = %3, %15
  %.0 = phi i64 [ %0, %15 ], [ %7, %3 ]
  %20 = tail call i64 @rb_data_typed_object_zalloc(i64 noundef 0, i64 noundef 88, ptr noundef nonnull @load_arg_data) #22
  %21 = inttoptr i64 %20 to ptr
  %22 = getelementptr inbounds nuw i8, ptr %21, i64 24
  %23 = load i64, ptr %22, align 8, !tbaa !31
  %24 = and i64 %23, 2
  %.not.i = icmp eq i64 %24, 0
  %25 = getelementptr i8, ptr %21, i64 32
  br i1 %.not.i, label %26, label %RTYPEDDATA_GET_DATA.exit

26:                                               ; preds = %19
  %27 = load ptr, ptr %25, align 8, !tbaa !35
  br label %RTYPEDDATA_GET_DATA.exit

RTYPEDDATA_GET_DATA.exit:                         ; preds = %19, %26
  %28 = phi ptr [ %27, %26 ], [ %25, %19 ]
  store i64 %20, ptr %4, align 8, !tbaa !7
  store i64 %.0, ptr %28, align 8, !tbaa !22
  %29 = getelementptr inbounds nuw i8, ptr %28, i64 32
  store i64 0, ptr %29, align 8, !tbaa !27
  %30 = tail call ptr @rb_st_init_numtable() #22
  %31 = getelementptr inbounds nuw i8, ptr %28, i64 40
  store ptr %30, ptr %31, align 8, !tbaa !47
  %32 = tail call ptr @rb_init_identtable() #22
  %33 = getelementptr inbounds nuw i8, ptr %28, i64 48
  store ptr %32, ptr %33, align 8, !tbaa !48
  %34 = tail call ptr @rb_init_identtable() #22
  %35 = getelementptr inbounds nuw i8, ptr %28, i64 56
  store ptr %34, ptr %35, align 8, !tbaa !49
  %36 = getelementptr inbounds nuw i8, ptr %28, i64 72
  %37 = getelementptr inbounds nuw i8, ptr %28, i64 64
  %38 = getelementptr inbounds nuw i8, ptr %28, i64 24
  store i64 0, ptr %38, align 8, !tbaa !50
  %39 = getelementptr inbounds nuw i8, ptr %28, i64 80
  tail call void @llvm.memset.p0.i64(ptr noundef nonnull align 8 dereferenceable(16) %37, i8 0, i64 16, i1 false)
  store i8 %6, ptr %39, align 8, !tbaa !51
  br i1 %8, label %40, label %42

40:                                               ; preds = %RTYPEDDATA_GET_DATA.exit
  %41 = tail call noalias nonnull dereferenceable(8192) ptr @ruby_xmalloc(i64 noundef 8192) #24
  br label %42

42:                                               ; preds = %RTYPEDDATA_GET_DATA.exit, %40
  %.sink = phi ptr [ %41, %40 ], [ null, %RTYPEDDATA_GET_DATA.exit ]
  %43 = getelementptr inbounds nuw i8, ptr %28, i64 8
  store ptr %.sink, ptr %43, align 8, !tbaa !52
  %44 = tail call fastcc i32 @r_byte(ptr noundef nonnull %28)
  %45 = tail call fastcc i32 @r_byte(ptr noundef nonnull %28)
  %46 = icmp ne i32 %44, 4
  %47 = icmp samesign ugt i32 %45, 8
  %or.cond = select i1 %46, i1 true, i1 %47
  br i1 %or.cond, label %48, label %50

48:                                               ; preds = %42
  tail call fastcc void @clear_load_arg(ptr noundef nonnull %28)
  %49 = load i64, ptr @rb_eTypeError, align 8, !tbaa !7
  tail call void (i64, ptr, ...) @rb_raise(i64 noundef %49, ptr noundef nonnull @.str.59, i32 noundef 4, i32 noundef 8, i32 noundef %44, i32 noundef %45) #23
  unreachable

50:                                               ; preds = %42
  %51 = tail call ptr @rb_ruby_verbose_ptr() #22
  %52 = load i64, ptr %51, align 8, !tbaa !7
  %53 = and i64 %52, -5
  %54 = icmp ne i64 %53, 0
  %55 = icmp ne i32 %45, 8
  %or.cond3 = select i1 %54, i1 %55, i1 false
  br i1 %or.cond3, label %56, label %57

56:                                               ; preds = %50
  tail call void (ptr, ...) @rb_warn(ptr noundef nonnull @.str.60, i32 noundef 4, i32 noundef 8, i32 noundef 4, i32 noundef %45) #26
  br label %57

57:                                               ; preds = %56, %50
  %58 = icmp eq i64 %1, 4
  br i1 %58, label %60, label %59

59:                                               ; preds = %57
  store i64 %1, ptr %37, align 8, !tbaa !53
  br label %60

60:                                               ; preds = %59, %57
  %61 = tail call fastcc i32 @r_byte(ptr noundef nonnull %28)
  %62 = tail call fastcc range(i64 37, 36) i64 @r_object_for(ptr noundef nonnull %28, i1 noundef zeroext false, ptr noundef null, i64 noundef 4, i32 noundef %61)
  %63 = load ptr, ptr %43, align 8, !tbaa !52
  tail call void @ruby_xfree(ptr noundef %63) #22
  tail call void @llvm.memset.p0.i64(ptr noundef nonnull align 8 dereferenceable(32) %43, i8 0, i64 32, i1 false)
  %64 = load ptr, ptr %31, align 8, !tbaa !47
  %.not.i45 = icmp eq ptr %64, null
  br i1 %.not.i45, label %clear_load_arg.exit, label %65

65:                                               ; preds = %60
  tail call void @rb_st_free_table(ptr noundef nonnull %64) #22
  store ptr null, ptr %31, align 8, !tbaa !47
  %66 = load ptr, ptr %33, align 8, !tbaa !48
  tail call void @rb_st_free_table(ptr noundef %66) #22
  store ptr null, ptr %33, align 8, !tbaa !48
  %67 = load ptr, ptr %35, align 8, !tbaa !49
  tail call void @rb_st_free_table(ptr noundef %67) #22
  store ptr null, ptr %35, align 8, !tbaa !49
  %68 = load ptr, ptr %36, align 8, !tbaa !54
  %.not16.i = icmp eq ptr %68, null
  br i1 %.not16.i, label %clear_load_arg.exit, label %69

69:                                               ; preds = %65
  tail call void @rb_st_free_table(ptr noundef nonnull %68) #22
  store ptr null, ptr %36, align 8, !tbaa !54
  br label %clear_load_arg.exit

clear_load_arg.exit:                              ; preds = %60, %65, %69
  call void @llvm.lifetime.start.p0(i64 8, ptr nonnull %5) #22
  store ptr %4, ptr %5, align 8, !tbaa !28
  call void asm sideeffect "", "*m,~{dirflag},~{fpsr},~{flags}"(ptr nonnull elementtype(ptr) %5) #22, !srcloc !55
  %70 = load ptr, ptr %5, align 8, !tbaa !28
  call void @llvm.lifetime.end.p0(i64 8, ptr nonnull %5) #22
  %71 = load volatile i64, ptr %70, align 8, !tbaa !7
  call void @llvm.lifetime.end.p0(i64 8, ptr nonnull %4) #22
  ret i64 %62
}